target datalayout = "e-m:e-p270:32:32-p271:32:32-p272:64:64-i64:64-i128:128-f80:128-n8:16:32:64-S128"
target triple = "x86_64-pc-linux-gnu"

%struct.Abc_Ntk_t_ = type { i32, i32, ptr, ptr, ptr, ptr, ptr, ptr, ptr, ptr, ptr, ptr, ptr, [11 x i32], i32, i32, i32, i32, ptr, i32, ptr, ptr, i32, i32, i32, double, i32, %struct.Vec_Int_t_, ptr, ptr, ptr, ptr, ptr, float, i32, ptr, ptr, ptr, ptr, ptr, ptr, ptr, ptr, ptr, ptr, ptr, ptr, ptr, ptr, ptr, ptr, ptr, ptr, ptr, ptr, ptr }
%struct.Vec_Int_t_ = type { i32, i32, ptr }
%struct.Abc_ManTime_t_ = type { %struct.Abc_Time_t_, %struct.Abc_Time_t_, ptr, ptr, %struct.Abc_Time_t_, %struct.Abc_Time_t_, ptr, ptr }
%struct.Abc_Time_t_ = type { float, float }
%struct.Abc_Obj_t_ = type { ptr, ptr, i32, i32, %struct.Vec_Int_t_, %struct.Vec_Int_t_, %union.anon, %union.anon.0 }
%union.anon = type { ptr }
%union.anon.0 = type { ptr }
%struct.Vec_Ptr_t_ = type { i32, i32, ptr }

; Function Attrs: nounwind uwtable
define internal ptr @Abc_NodeRequired(ptr noundef %0) #0 {
  %2 = alloca ptr, align 8
  store ptr %0, ptr %2, align 8
  %3 = load ptr, ptr %2, align 8
  %4 = getelementptr inbounds %struct.Abc_Obj_t_, ptr %3, i32 0, i32 0
  %5 = load ptr, ptr %4, align 8
  %6 = getelementptr inbounds %struct.Abc_Ntk_t_, ptr %5, i32 0, i32 31
  %7 = load ptr, ptr %6, align 8
  %8 = getelementptr inbounds %struct.Abc_ManTime_t_, ptr %7, i32 0, i32 3
  %9 = load ptr, ptr %8, align 8
  %10 = getelementptr inbounds %struct.Vec_Ptr_t_, ptr %9, i32 0, i32 2
  %11 = load ptr, ptr %10, align 8
  %12 = load ptr, ptr %2, align 8
  %13 = getelementptr inbounds %struct.Abc_Obj_t_, ptr %12, i32 0, i32 2
  %14 = load i32, ptr %13, align 8
  %15 = sext i32 %14 to i64
  %16 = getelementptr inbounds ptr, ptr %11, i64 %15
  %17 = load ptr, ptr %16, align 8
  ret ptr %17
}

; Function Attrs: nounwind uwtable
define internal float @Abc_MinFloat(float noundef %0, float noundef %1) #0 {
  %3 = alloca float, align 4
  %4 = alloca float, align 4
  store float %0, ptr %3, align 4
  store float %1, ptr %4, align 4
  %5 = load float, ptr %3, align 4
  %6 = load float, ptr %4, align 4
  %7 = fcmp olt float %5, %6
  br i1 %7, label %8, label %10

8:                                                ; preds = %2
  %9 = load float, ptr %3, align 4
  br label %12

10:                                               ; preds = %2
  %11 = load float, ptr %4, align 4
  br label %12

12:                                               ; preds = %10, %8
  %13 = phi float [ %9, %8 ], [ %11, %10 ]
  ret float %13
}

; Function Attrs: nounwind uwtable
define ptr @Abc_NodeReadRequired(ptr noundef %0) #0 {
  %2 = alloca ptr, align 8
  store ptr %0, ptr %2, align 8
  %3 = load ptr, ptr %2, align 8
  %4 = call ptr @Abc_NodeRequired(ptr noundef %3)
  ret ptr %4
}

; Function Attrs: nounwind uwtable
define internal ptr @Vec_PtrEntry(ptr noundef %0, i32 noundef %1) #0 {
  %3 = alloca ptr, align 8
  %4 = alloca i32, align 4
  store ptr %0, ptr %3, align 8
  store i32 %1, ptr %4, align 4
  %5 = load ptr, ptr %3, align 8
  %6 = getelementptr inbounds %struct.Vec_Ptr_t_, ptr %5, i32 0, i32 2
  %7 = load ptr, ptr %6, align 8
  %8 = load i32, ptr %4, align 4
  %9 = sext i32 %8 to i64
  %10 = getelementptr inbounds ptr, ptr %7, i64 %9
  %11 = load ptr, ptr %10, align 8
  ret ptr %11
}

; Function Attrs: nounwind uwtable
define internal i32 @Vec_PtrSize(ptr noundef %0) #0 {
  %2 = alloca ptr, align 8
  store ptr %0, ptr %2, align 8
  %3 = load ptr, ptr %2, align 8
  %4 = getelementptr inbounds %struct.Vec_Ptr_t_, ptr %3, i32 0, i32 1
  %5 = load i32, ptr %4, align 4
  ret i32 %5
}

; Function Attrs: nounwind uwtable
define float @Abc_NodeReadRequiredWorst(ptr noundef %0) #0 {
  %2 = alloca ptr, align 8
  store ptr %0, ptr %2, align 8
  %3 = load ptr, ptr %2, align 8
  %4 = call ptr @Abc_NodeReadRequired(ptr noundef %3)
  %5 = getelementptr inbounds %struct.Abc_Time_t_, ptr %4, i32 0, i32 0
  %6 = load float, ptr %5, align 4
  %7 = load ptr, ptr %2, align 8
  %8 = call ptr @Abc_NodeReadRequired(ptr noundef %7)
  %9 = getelementptr inbounds %struct.Abc_Time_t_, ptr %8, i32 0, i32 1
  %10 = load float, ptr %9, align 4
  %11 = call float @Abc_MinFloat(float noundef %6, float noundef %10)
  ret float %11
}

; Function Attrs: nounwind uwtable
define internal ptr @Abc_NtkCo(ptr noundef %0, i32 noundef %1) #0 {
  %3 = alloca ptr, align 8
  %4 = alloca i32, align 4
  store ptr %0, ptr %3, align 8
  store i32 %1, ptr %4, align 4
  %5 = load ptr, ptr %3, align 8
  %6 = getelementptr inbounds %struct.Abc_Ntk_t_, ptr %5, i32 0, i32 9
  %7 = load ptr, ptr %6, align 8
  %8 = load i32, ptr %4, align 4
  %9 = call ptr @Vec_PtrEntry(ptr noundef %7, i32 noundef %8)
  ret ptr %9
}

; Function Attrs: nounwind uwtable
define internal i32 @Abc_NtkCoNum(ptr noundef %0) #0 {
  %2 = alloca ptr, align 8
  store ptr %0, ptr %2, align 8
  %3 = load ptr, ptr %2, align 8
  %4 = getelementptr inbounds %struct.Abc_Ntk_t_, ptr %3, i32 0, i32 9
  %5 = load ptr, ptr %4, align 8
  %6 = call i32 @Vec_PtrSize(ptr noundef %5)
  ret i32 %6
}

; Function Attrs: nounwind uwtable
define ptr @Abc_NtkGetCoRequiredFloats(ptr noundef %0) #0 {
  %2 = alloca ptr, align 8
  %3 = alloca ptr, align 8
  %4 = alloca ptr, align 8
  %5 = alloca ptr, align 8
  %6 = alloca i32, align 4
  store ptr %0, ptr %3, align 8
  %7 = load ptr, ptr %3, align 8
  %8 = getelementptr inbounds %struct.Abc_Ntk_t_, ptr %7, i32 0, i32 31
  %9 = load ptr, ptr %8, align 8
  %10 = icmp eq ptr %9, null
  br i1 %10, label %11, label %12

11:                                               ; preds = %1
  store ptr null, ptr %2, align 8
  br label %40

12:                                               ; preds = %1
  %13 = load ptr, ptr %3, align 8
  %14 = call i32 @Abc_NtkCoNum(ptr noundef %13)
  %15 = sext i32 %14 to i64
  %16 = call noalias ptr @calloc(i64 noundef %15, i64 noundef 4) #12
  store ptr %16, ptr %4, align 8
  store i32 0, ptr %6, align 4
  br label %17

17:                                               ; preds = %35, %12
  %18 = load i32, ptr %6, align 4
  %19 = load ptr, ptr %3, align 8
  %20 = call i32 @Abc_NtkCoNum(ptr noundef %19)
  %21 = icmp slt i32 %18, %20
  br i1 %21, label %22, label %26

22:                                               ; preds = %17
  %23 = load ptr, ptr %3, align 8
  %24 = load i32, ptr %6, align 4
  %25 = call ptr @Abc_NtkCo(ptr noundef %23, i32 noundef %24)
  store ptr %25, ptr %5, align 8
  br label %26

26:                                               ; preds = %22, %17
  %27 = phi i1 [ false, %17 ], [ true, %22 ]
  br i1 %27, label %28, label %38

28:                                               ; preds = %26
  %29 = load ptr, ptr %5, align 8
  %30 = call float @Abc_NodeReadRequiredWorst(ptr noundef %29)
  %31 = load ptr, ptr %4, align 8
  %32 = load i32, ptr %6, align 4
  %33 = sext i32 %32 to i64
  %34 = getelementptr inbounds float, ptr %31, i64 %33
  store float %30, ptr %34, align 4
  br label %35

35:                                               ; preds = %28
  %36 = load i32, ptr %6, align 4
  %37 = add nsw i32 %36, 1
  store i32 %37, ptr %6, align 4
  br label %17, !llvm.loop !33

38:                                               ; preds = %26
  %39 = load ptr, ptr %4, align 8
  store ptr %39, ptr %2, align 8
  br label %40

40:                                               ; preds = %38, %11
  %41 = load ptr, ptr %2, align 8
  ret ptr %41
}