; Function Attrs: nofree nounwind memory(readwrite, argmem: read) uwtable
define noalias noundef ptr @Abc_NtkGetCoRequiredFloats(ptr noundef readonly captures(none) %0) local_unnamed_addr #12 {
  %2 = getelementptr inbounds nuw i8, ptr %0, i64 264
  %3 = load ptr, ptr %2, align 8
  %4 = icmp eq ptr %3, null
  br i1 %4, label %.critedge, label %5

5:                                                ; preds = %1
  %6 = getelementptr i8, ptr %0, i64 64
  %.val12 = load ptr, ptr %6, align 8
  %7 = getelementptr i8, ptr %.val12, i64 4
  %.val12.val = load i32, ptr %7, align 4
  %8 = sext i32 %.val12.val to i64
  %9 = tail call noalias ptr @calloc(i64 noundef %8, i64 noundef 4) #21
  %10 = icmp sgt i32 %.val12.val, 0
  br i1 %10, label %.lr.ph, label %.critedge

.lr.ph:                                           ; preds = %5
  %11 = getelementptr i8, ptr %.val12, i64 8
  %.val13.val = load ptr, ptr %11, align 8
  %wide.trip.count = zext nneg i32 %.val12.val to i64
  br label %12

12:                                               ; preds = %.lr.ph, %12
  %indvars.iv = phi i64 [ 0, %.lr.ph ], [ %indvars.iv.next, %12 ]
  %13 = getelementptr inbounds nuw ptr, ptr %.val13.val, i64 %indvars.iv
  %14 = load ptr, ptr %13, align 8
  %.val.i.i = load ptr, ptr %14, align 8
  %15 = getelementptr i8, ptr %14, i64 16
  %.val1.i.i = load i32, ptr %15, align 8
  %16 = getelementptr i8, ptr %.val.i.i, i64 264
  %.val.val.i.i = load ptr, ptr %16, align 8
  %17 = getelementptr i8, ptr %.val.val.i.i, i64 24
  %.val.val.val.i.i = load ptr, ptr %17, align 8
  %18 = getelementptr i8, ptr %.val.val.val.i.i, i64 8
  %.val.val.val.val.i.i = load ptr, ptr %18, align 8
  %19 = sext i32 %.val1.i.i to i64
  %20 = getelementptr inbounds ptr, ptr %.val.val.val.val.i.i, i64 %19
  %21 = load ptr, ptr %20, align 8
  %22 = load float, ptr %21, align 4
  %23 = getelementptr inbounds nuw i8, ptr %21, i64 4
  %24 = load float, ptr %23, align 4
  %25 = fcmp olt float %22, %24
  %26 = select i1 %25, float %22, float %24
  %27 = getelementptr inbounds nuw float, ptr %9, i64 %indvars.iv
  store float %26, ptr %27, align 4
  %indvars.iv.next = add nuw nsw i64 %indvars.iv, 1
  %exitcond.not = icmp eq i64 %indvars.iv.next, %wide.trip.count
  br i1 %exitcond.not, label %.critedge, label %12, !llvm.loop !33

.critedge:                                        ; preds = %12, %5, %1
  %.011 = phi ptr [ null, %1 ], [ %9, %5 ], [ %9, %12 ]
  ret ptr %.011
}